; Function Attrs: mustprogress uwtable
define void @_ZN10open_spiel13markov_soccer17MarkovSoccerStateC2ESt10shared_ptrIKNS_4GameEERKNS0_4GridE(ptr noundef nonnull align 8 dereferenceable(144) %0, ptr nocapture noundef readonly %1, ptr noundef nonnull align 8 dereferenceable(48) %2) unnamed_addr #3 align 2 personality ptr @__gxx_personality_v0 {
  %4 = alloca %"class.std::shared_ptr", align 8
  %5 = load ptr, ptr %1, align 8
  store ptr %5, ptr %4, align 8
  %6 = getelementptr inbounds nuw i8, ptr %4, i64 8
  %7 = getelementptr inbounds nuw i8, ptr %1, i64 8
  %8 = load ptr, ptr %7, align 8
  store ptr %8, ptr %6, align 8
  %.not.i.i.i = icmp eq ptr %8, null
  br i1 %.not.i.i.i, label %_ZNSt10shared_ptrIKN10open_spiel4GameEEC2ERKS3_.exit, label %9

9:                                                ; preds = %3
  %10 = getelementptr inbounds nuw i8, ptr %8, i64 8
  %11 = load i8, ptr @__libc_single_threaded, align 1
  %.not.i.i.i.i = icmp eq i8 %11, 0
  br i1 %.not.i.i.i.i, label %15, label %12

12:                                               ; preds = %9
  %13 = load i32, ptr %10, align 4
  %14 = add nsw i32 %13, 1
  store i32 %14, ptr %10, align 4
  br label %_ZNSt10shared_ptrIKN10open_spiel4GameEEC2ERKS3_.exit

15:                                               ; preds = %9
  %16 = atomicrmw volatile add ptr %10, i32 1 acq_rel, align 4
  br label %_ZNSt10shared_ptrIKN10open_spiel4GameEEC2ERKS3_.exit

_ZNSt10shared_ptrIKN10open_spiel4GameEEC2ERKS3_.exit: ; preds = %3, %12, %15
  invoke void @_ZN10open_spiel12SimMoveStateC2ESt10shared_ptrIKNS_4GameEE(ptr noundef nonnull align 8 dereferenceable(60) %0, ptr noundef nonnull %4)
          to label %17 unwind label %56

17:                                               ; preds = %_ZNSt10shared_ptrIKN10open_spiel4GameEEC2ERKS3_.exit
  %18 = load ptr, ptr %6, align 8
  %.not.i.i.i3 = icmp eq ptr %18, null
  br i1 %.not.i.i.i3, label %_ZNSt10shared_ptrIKN10open_spiel4GameEED2Ev.exit, label %19

19:                                               ; preds = %17
  %20 = getelementptr inbounds nuw i8, ptr %18, i64 8
  %21 = load atomic i64, ptr %20 acquire, align 8
  %22 = icmp eq i64 %21, 4294967297
  %23 = trunc i64 %21 to i32
  br i1 %22, label %24, label %29

24:                                               ; preds = %19
  store i32 0, ptr %20, align 8
  %25 = getelementptr inbounds nuw i8, ptr %18, i64 12
  store i32 0, ptr %25, align 4
  %26 = load ptr, ptr %18, align 8
  %27 = getelementptr inbounds i8, ptr %26, i64 16
  %28 = load ptr, ptr %27, align 8
  call void %28(ptr noundef nonnull align 8 dereferenceable(16) %18) #26
  br label %_ZNSt16_Sp_counted_baseILN9__gnu_cxx12_Lock_policyE2EE24_M_release_last_use_coldEv.exit.sink.split.i.i.i.i

29:                                               ; preds = %19
  %30 = load i8, ptr @__libc_single_threaded, align 1
  %.not.i.i.i.i4 = icmp eq i8 %30, 0
  br i1 %.not.i.i.i.i4, label %33, label %31

31:                                               ; preds = %29
  %32 = add nsw i32 %23, -1
  store i32 %32, ptr %20, align 4
  br label %35

33:                                               ; preds = %29
  %34 = atomicrmw volatile add ptr %20, i32 -1 acq_rel, align 4
  br label %35

35:                                               ; preds = %33, %31
  %.0.i.i.i.i = phi i32 [ %23, %31 ], [ %34, %33 ]
  %36 = icmp eq i32 %.0.i.i.i.i, 1
  br i1 %36, label %37, label %_ZNSt10shared_ptrIKN10open_spiel4GameEED2Ev.exit

37:                                               ; preds = %35
  %38 = load ptr, ptr %18, align 8
  %39 = getelementptr inbounds i8, ptr %38, i64 16
  %40 = load ptr, ptr %39, align 8
  call void %40(ptr noundef nonnull align 8 dereferenceable(16) %18) #26
  %41 = getelementptr inbounds nuw i8, ptr %18, i64 12
  %42 = load i8, ptr @__libc_single_threaded, align 1
  %.not.i.i.i.i.i.i = icmp eq i8 %42, 0
  br i1 %.not.i.i.i.i.i.i, label %46, label %43

43:                                               ; preds = %37
  %44 = load i32, ptr %41, align 4
  %45 = add nsw i32 %44, -1
  store i32 %45, ptr %41, align 4
  br label %48

46:                                               ; preds = %37
  %47 = atomicrmw volatile add ptr %41, i32 -1 acq_rel, align 4
  br label %48

48:                                               ; preds = %46, %43
  %.0.i.i.i.i.i.i = phi i32 [ %44, %43 ], [ %47, %46 ]
  %49 = icmp eq i32 %.0.i.i.i.i.i.i, 1
  br i1 %49, label %_ZNSt16_Sp_counted_baseILN9__gnu_cxx12_Lock_policyE2EE24_M_release_last_use_coldEv.exit.sink.split.i.i.i.i, label %_ZNSt10shared_ptrIKN10open_spiel4GameEED2Ev.exit

_ZNSt16_Sp_counted_baseILN9__gnu_cxx12_Lock_policyE2EE24_M_release_last_use_coldEv.exit.sink.split.i.i.i.i: ; preds = %48, %24
  %50 = load ptr, ptr %18, align 8
  %51 = getelementptr inbounds i8, ptr %50, i64 24
  %52 = load ptr, ptr %51, align 8
  call void %52(ptr noundef nonnull align 8 dereferenceable(16) %18) #26
  br label %_ZNSt10shared_ptrIKN10open_spiel4GameEED2Ev.exit

_ZNSt10shared_ptrIKN10open_spiel4GameEED2Ev.exit: ; preds = %17, %35, %48, %_ZNSt16_Sp_counted_baseILN9__gnu_cxx12_Lock_policyE2EE24_M_release_last_use_coldEv.exit.sink.split.i.i.i.i
  store ptr getelementptr inbounds inrange(-16, 304) (i8, ptr @_ZTVN10open_spiel13markov_soccer17MarkovSoccerStateE, i64 16), ptr %0, align 8
  %53 = getelementptr inbounds nuw i8, ptr %0, i64 64
  store ptr %2, ptr %53, align 8
  %54 = getelementptr inbounds nuw i8, ptr %0, i64 72
  %55 = getelementptr inbounds nuw i8, ptr %0, i64 120
  call void @llvm.memset.p0.i64(ptr noundef nonnull align 8 dereferenceable(48) %54, i8 -1, i64 48, i1 false)
  call void @_ZNSaIcEC2Ev(ptr noundef nonnull align 1 dereferenceable(1) %55) #26
  call void @llvm.memset.p0.i64(ptr noundef nonnull align 8 dereferenceable(24) %55, i8 0, i64 24, i1 false)
  ret void

56:                                               ; preds = %_ZNSt10shared_ptrIKN10open_spiel4GameEEC2ERKS3_.exit
  %57 = landingpad { ptr, i32 }
          cleanup
  call void @_ZNSt10shared_ptrIKN10open_spiel4GameEED2Ev(ptr noundef nonnull align 8 dereferenceable(16) %4) #26
  resume { ptr, i32 } %57
}